target datalayout = "e-m:e-p270:32:32-p271:32:32-p272:64:64-i64:64-i128:128-f80:128-n8:16:32:64-S128"
target triple = "x86_64-pc-linux-gnu"

%struct.lean_object = type { i32, i32 }

; Function Attrs: alwaysinline nounwind uwtable
define internal void @lean_dec_ref(ptr noundef %0) #1 {
  %2 = alloca ptr, align 8
  store ptr %0, ptr %2, align 8, !tbaa !8
  %3 = load ptr, ptr %2, align 8, !tbaa !8
  %4 = getelementptr inbounds nuw %struct.lean_object, ptr %3, i32 0, i32 0
  %5 = load i32, ptr %4, align 4, !tbaa !11
  %6 = icmp sgt i32 %5, 1
  %7 = zext i1 %6 to i32
  %8 = sext i32 %7 to i64
  %9 = call i64 @llvm.expect.i64(i64 %8, i64 1)
  %10 = icmp ne i64 %9, 0
  br i1 %10, label %11, label %16

11:                                               ; preds = %1
  %12 = load ptr, ptr %2, align 8, !tbaa !8
  %13 = getelementptr inbounds nuw %struct.lean_object, ptr %12, i32 0, i32 0
  %14 = load i32, ptr %13, align 4, !tbaa !11
  %15 = add i32 %14, -1
  store i32 %15, ptr %13, align 4, !tbaa !11
  br label %24

16:                                               ; preds = %1
  %17 = load ptr, ptr %2, align 8, !tbaa !8
  %18 = getelementptr inbounds nuw %struct.lean_object, ptr %17, i32 0, i32 0
  %19 = load i32, ptr %18, align 4, !tbaa !11
  %20 = icmp ne i32 %19, 0
  br i1 %20, label %21, label %23

21:                                               ; preds = %16
  %22 = load ptr, ptr %2, align 8, !tbaa !8
  call void @lean_dec_ref_cold(ptr noundef %22)
  br label %23

23:                                               ; preds = %21, %16
  br label %24

24:                                               ; preds = %23, %11
  ret void
}

; Function Attrs: alwaysinline nounwind uwtable
define internal zeroext i1 @lean_is_scalar(ptr noundef %0) #1 {
  %2 = alloca ptr, align 8
  store ptr %0, ptr %2, align 8, !tbaa !8
  %3 = load ptr, ptr %2, align 8, !tbaa !8
  %4 = ptrtoint ptr %3 to i64
  %5 = and i64 %4, 1
  %6 = icmp eq i64 %5, 1
  ret i1 %6
}

; Function Attrs: alwaysinline nounwind uwtable
define internal void @lean_dec(ptr noundef %0) #1 {
  %2 = alloca ptr, align 8
  store ptr %0, ptr %2, align 8, !tbaa !8
  %3 = load ptr, ptr %2, align 8, !tbaa !8
  %4 = call zeroext i1 @lean_is_scalar(ptr noundef %3)
  br i1 %4, label %7, label %5

5:                                                ; preds = %1
  %6 = load ptr, ptr %2, align 8, !tbaa !8
  call void @lean_dec_ref(ptr noundef %6)
  br label %7

7:                                                ; preds = %5, %1
  ret void
}

; Function Attrs: inlinehint nounwind uwtable
define internal i64 @lean_unbox(ptr noundef %0) #0 {
  %2 = alloca ptr, align 8
  store ptr %0, ptr %2, align 8, !tbaa !8
  %3 = load ptr, ptr %2, align 8, !tbaa !8
  %4 = ptrtoint ptr %3 to i64
  %5 = lshr i64 %4, 1
  ret i64 %5
}

; Function Attrs: nounwind uwtable
define ptr @l_Lake_Monitor_reportJob___lambda__2___boxed(ptr noundef %0) #2 {
  %2 = alloca ptr, align 8
  %3 = alloca ptr, align 8
  %4 = alloca ptr, align 8
  %5 = alloca ptr, align 8
  %6 = alloca ptr, align 8
  %7 = alloca ptr, align 8
  %8 = alloca ptr, align 8
  %9 = alloca ptr, align 8
  %10 = alloca ptr, align 8
  %11 = alloca ptr, align 8
  %12 = alloca ptr, align 8
  %13 = alloca ptr, align 8
  %14 = alloca ptr, align 8
  %15 = alloca ptr, align 8
  %16 = alloca ptr, align 8
  %17 = alloca ptr, align 8
  %18 = alloca ptr, align 8
  %19 = alloca ptr, align 8
  %20 = alloca ptr, align 8
  %21 = alloca i8, align 1
  %22 = alloca i8, align 1
  %23 = alloca i8, align 1
  %24 = alloca i8, align 1
  %25 = alloca i8, align 1
  %26 = alloca i8, align 1
  %27 = alloca i8, align 1
  %28 = alloca i8, align 1
  %29 = alloca i8, align 1
  %30 = alloca ptr, align 8
  store ptr %0, ptr %2, align 8, !tbaa !17
  call void @llvm.lifetime.start.p0(i64 8, ptr %3) #7
  %31 = load ptr, ptr %2, align 8, !tbaa !17
  %32 = getelementptr inbounds ptr, ptr %31, i64 0
  %33 = load ptr, ptr %32, align 8, !tbaa !8
  store ptr %33, ptr %3, align 8, !tbaa !8
  call void @llvm.lifetime.start.p0(i64 8, ptr %4) #7
  %34 = load ptr, ptr %2, align 8, !tbaa !17
  %35 = getelementptr inbounds ptr, ptr %34, i64 1
  %36 = load ptr, ptr %35, align 8, !tbaa !8
  store ptr %36, ptr %4, align 8, !tbaa !8
  call void @llvm.lifetime.start.p0(i64 8, ptr %5) #7
  %37 = load ptr, ptr %2, align 8, !tbaa !17
  %38 = getelementptr inbounds ptr, ptr %37, i64 2
  %39 = load ptr, ptr %38, align 8, !tbaa !8
  store ptr %39, ptr %5, align 8, !tbaa !8
  call void @llvm.lifetime.start.p0(i64 8, ptr %6) #7
  %40 = load ptr, ptr %2, align 8, !tbaa !17
  %41 = getelementptr inbounds ptr, ptr %40, i64 3
  %42 = load ptr, ptr %41, align 8, !tbaa !8
  store ptr %42, ptr %6, align 8, !tbaa !8
  call void @llvm.lifetime.start.p0(i64 8, ptr %7) #7
  %43 = load ptr, ptr %2, align 8, !tbaa !17
  %44 = getelementptr inbounds ptr, ptr %43, i64 4
  %45 = load ptr, ptr %44, align 8, !tbaa !8
  store ptr %45, ptr %7, align 8, !tbaa !8
  call void @llvm.lifetime.start.p0(i64 8, ptr %8) #7
  %46 = load ptr, ptr %2, align 8, !tbaa !17
  %47 = getelementptr inbounds ptr, ptr %46, i64 5
  %48 = load ptr, ptr %47, align 8, !tbaa !8
  store ptr %48, ptr %8, align 8, !tbaa !8
  call void @llvm.lifetime.start.p0(i64 8, ptr %9) #7
  %49 = load ptr, ptr %2, align 8, !tbaa !17
  %50 = getelementptr inbounds ptr, ptr %49, i64 6
  %51 = load ptr, ptr %50, align 8, !tbaa !8
  store ptr %51, ptr %9, align 8, !tbaa !8
  call void @llvm.lifetime.start.p0(i64 8, ptr %10) #7
  %52 = load ptr, ptr %2, align 8, !tbaa !17
  %53 = getelementptr inbounds ptr, ptr %52, i64 7
  %54 = load ptr, ptr %53, align 8, !tbaa !8
  store ptr %54, ptr %10, align 8, !tbaa !8
  call void @llvm.lifetime.start.p0(i64 8, ptr %11) #7
  %55 = load ptr, ptr %2, align 8, !tbaa !17
  %56 = getelementptr inbounds ptr, ptr %55, i64 8
  %57 = load ptr, ptr %56, align 8, !tbaa !8
  store ptr %57, ptr %11, align 8, !tbaa !8
  call void @llvm.lifetime.start.p0(i64 8, ptr %12) #7
  %58 = load ptr, ptr %2, align 8, !tbaa !17
  %59 = getelementptr inbounds ptr, ptr %58, i64 9
  %60 = load ptr, ptr %59, align 8, !tbaa !8
  store ptr %60, ptr %12, align 8, !tbaa !8
  call void @llvm.lifetime.start.p0(i64 8, ptr %13) #7
  %61 = load ptr, ptr %2, align 8, !tbaa !17
  %62 = getelementptr inbounds ptr, ptr %61, i64 10
  %63 = load ptr, ptr %62, align 8, !tbaa !8
  store ptr %63, ptr %13, align 8, !tbaa !8
  call void @llvm.lifetime.start.p0(i64 8, ptr %14) #7
  %64 = load ptr, ptr %2, align 8, !tbaa !17
  %65 = getelementptr inbounds ptr, ptr %64, i64 11
  %66 = load ptr, ptr %65, align 8, !tbaa !8
  store ptr %66, ptr %14, align 8, !tbaa !8
  call void @llvm.lifetime.start.p0(i64 8, ptr %15) #7
  %67 = load ptr, ptr %2, align 8, !tbaa !17
  %68 = getelementptr inbounds ptr, ptr %67, i64 12
  %69 = load ptr, ptr %68, align 8, !tbaa !8
  store ptr %69, ptr %15, align 8, !tbaa !8
  call void @llvm.lifetime.start.p0(i64 8, ptr %16) #7
  %70 = load ptr, ptr %2, align 8, !tbaa !17
  %71 = getelementptr inbounds ptr, ptr %70, i64 13
  %72 = load ptr, ptr %71, align 8, !tbaa !8
  store ptr %72, ptr %16, align 8, !tbaa !8
  call void @llvm.lifetime.start.p0(i64 8, ptr %17) #7
  %73 = load ptr, ptr %2, align 8, !tbaa !17
  %74 = getelementptr inbounds ptr, ptr %73, i64 14
  %75 = load ptr, ptr %74, align 8, !tbaa !8
  store ptr %75, ptr %17, align 8, !tbaa !8
  call void @llvm.lifetime.start.p0(i64 8, ptr %18) #7
  %76 = load ptr, ptr %2, align 8, !tbaa !17
  %77 = getelementptr inbounds ptr, ptr %76, i64 15
  %78 = load ptr, ptr %77, align 8, !tbaa !8
  store ptr %78, ptr %18, align 8, !tbaa !8
  call void @llvm.lifetime.start.p0(i64 8, ptr %19) #7
  %79 = load ptr, ptr %2, align 8, !tbaa !17
  %80 = getelementptr inbounds ptr, ptr %79, i64 16
  %81 = load ptr, ptr %80, align 8, !tbaa !8
  store ptr %81, ptr %19, align 8, !tbaa !8
  call void @llvm.lifetime.start.p0(i64 8, ptr %20) #7
  %82 = load ptr, ptr %2, align 8, !tbaa !17
  %83 = getelementptr inbounds ptr, ptr %82, i64 17
  %84 = load ptr, ptr %83, align 8, !tbaa !8
  store ptr %84, ptr %20, align 8, !tbaa !8
  br label %85

85:                                               ; preds = %1
  call void @llvm.lifetime.start.p0(i64 1, ptr %21) #7
  call void @llvm.lifetime.start.p0(i64 1, ptr %22) #7
  call void @llvm.lifetime.start.p0(i64 1, ptr %23) #7
  call void @llvm.lifetime.start.p0(i64 1, ptr %24) #7
  call void @llvm.lifetime.start.p0(i64 1, ptr %25) #7
  call void @llvm.lifetime.start.p0(i64 1, ptr %26) #7
  call void @llvm.lifetime.start.p0(i64 1, ptr %27) #7
  call void @llvm.lifetime.start.p0(i64 1, ptr %28) #7
  call void @llvm.lifetime.start.p0(i64 1, ptr %29) #7
  call void @llvm.lifetime.start.p0(i64 8, ptr %30) #7
  %86 = load ptr, ptr %6, align 8, !tbaa !8
  %87 = call i64 @lean_unbox(ptr noundef %86)
  %88 = trunc i64 %87 to i8
  store i8 %88, ptr %21, align 1, !tbaa !10
  %89 = load ptr, ptr %6, align 8, !tbaa !8
  call void @lean_dec(ptr noundef %89)
  %90 = load ptr, ptr %8, align 8, !tbaa !8
  %91 = call i64 @lean_unbox(ptr noundef %90)
  %92 = trunc i64 %91 to i8
  store i8 %92, ptr %22, align 1, !tbaa !10
  %93 = load ptr, ptr %8, align 8, !tbaa !8
  call void @lean_dec(ptr noundef %93)
  %94 = load ptr, ptr %9, align 8, !tbaa !8
  %95 = call i64 @lean_unbox(ptr noundef %94)
  %96 = trunc i64 %95 to i8
  store i8 %96, ptr %23, align 1, !tbaa !10
  %97 = load ptr, ptr %9, align 8, !tbaa !8
  call void @lean_dec(ptr noundef %97)
  %98 = load ptr, ptr %11, align 8, !tbaa !8
  %99 = call i64 @lean_unbox(ptr noundef %98)
  %100 = trunc i64 %99 to i8
  store i8 %100, ptr %24, align 1, !tbaa !10
  %101 = load ptr, ptr %11, align 8, !tbaa !8
  call void @lean_dec(ptr noundef %101)
  %102 = load ptr, ptr %12, align 8, !tbaa !8
  %103 = call i64 @lean_unbox(ptr noundef %102)
  %104 = trunc i64 %103 to i8
  store i8 %104, ptr %25, align 1, !tbaa !10
  %105 = load ptr, ptr %12, align 8, !tbaa !8
  call void @lean_dec(ptr noundef %105)
  %106 = load ptr, ptr %13, align 8, !tbaa !8
  %107 = call i64 @lean_unbox(ptr noundef %106)
  %108 = trunc i64 %107 to i8
  store i8 %108, ptr %26, align 1, !tbaa !10
  %109 = load ptr, ptr %13, align 8, !tbaa !8
  call void @lean_dec(ptr noundef %109)
  %110 = load ptr, ptr %14, align 8, !tbaa !8
  %111 = call i64 @lean_unbox(ptr noundef %110)
  %112 = trunc i64 %111 to i8
  store i8 %112, ptr %27, align 1, !tbaa !10
  %113 = load ptr, ptr %14, align 8, !tbaa !8
  call void @lean_dec(ptr noundef %113)
  %114 = load ptr, ptr %15, align 8, !tbaa !8
  %115 = call i64 @lean_unbox(ptr noundef %114)
  %116 = trunc i64 %115 to i8
  store i8 %116, ptr %28, align 1, !tbaa !10
  %117 = load ptr, ptr %15, align 8, !tbaa !8
  call void @lean_dec(ptr noundef %117)
  %118 = load ptr, ptr %16, align 8, !tbaa !8
  %119 = call i64 @lean_unbox(ptr noundef %118)
  %120 = trunc i64 %119 to i8
  store i8 %120, ptr %29, align 1, !tbaa !10
  %121 = load ptr, ptr %16, align 8, !tbaa !8
  call void @lean_dec(ptr noundef %121)
  %122 = load ptr, ptr %3, align 8, !tbaa !8
  %123 = load ptr, ptr %4, align 8, !tbaa !8
  %124 = load ptr, ptr %5, align 8, !tbaa !8
  %125 = load i8, ptr %21, align 1, !tbaa !10
  %126 = load ptr, ptr %7, align 8, !tbaa !8
  %127 = load i8, ptr %22, align 1, !tbaa !10
  %128 = load i8, ptr %23, align 1, !tbaa !10
  %129 = load ptr, ptr %10, align 8, !tbaa !8
  %130 = load i8, ptr %24, align 1, !tbaa !10
  %131 = load i8, ptr %25, align 1, !tbaa !10
  %132 = load i8, ptr %26, align 1, !tbaa !10
  %133 = load i8, ptr %27, align 1, !tbaa !10
  %134 = load i8, ptr %28, align 1, !tbaa !10
  %135 = load i8, ptr %29, align 1, !tbaa !10
  %136 = load ptr, ptr %17, align 8, !tbaa !8
  %137 = load ptr, ptr %18, align 8, !tbaa !8
  %138 = load ptr, ptr %19, align 8, !tbaa !8
  %139 = load ptr, ptr %20, align 8, !tbaa !8
  %140 = call ptr @l_Lake_Monitor_reportJob___lambda__2(ptr noundef %122, ptr noundef %123, ptr noundef %124, i8 noundef zeroext %125, ptr noundef %126, i8 noundef zeroext %127, i8 noundef zeroext %128, ptr noundef %129, i8 noundef zeroext %130, i8 noundef zeroext %131, i8 noundef zeroext %132, i8 noundef zeroext %133, i8 noundef zeroext %134, i8 noundef zeroext %135, ptr noundef %136, ptr noundef %137, ptr noundef %138, ptr noundef %139)
  store ptr %140, ptr %30, align 8, !tbaa !8
  %141 = load ptr, ptr %17, align 8, !tbaa !8
  call void @lean_dec(ptr noundef %141)
  %142 = load ptr, ptr %10, align 8, !tbaa !8
  call void @lean_dec(ptr noundef %142)
  %143 = load ptr, ptr %3, align 8, !tbaa !8
  call void @lean_dec(ptr noundef %143)
  %144 = load ptr, ptr %30, align 8, !tbaa !8
  call void @llvm.lifetime.end.p0(i64 8, ptr %30) #7
  call void @llvm.lifetime.end.p0(i64 1, ptr %29) #7
  call void @llvm.lifetime.end.p0(i64 1, ptr %28) #7
  call void @llvm.lifetime.end.p0(i64 1, ptr %27) #7
  call void @llvm.lifetime.end.p0(i64 1, ptr %26) #7
  call void @llvm.lifetime.end.p0(i64 1, ptr %25) #7
  call void @llvm.lifetime.end.p0(i64 1, ptr %24) #7
  call void @llvm.lifetime.end.p0(i64 1, ptr %23) #7
  call void @llvm.lifetime.end.p0(i64 1, ptr %22) #7
  call void @llvm.lifetime.end.p0(i64 1, ptr %21) #7
  call void @llvm.lifetime.end.p0(i64 8, ptr %20) #7
  call void @llvm.lifetime.end.p0(i64 8, ptr %19) #7
  call void @llvm.lifetime.end.p0(i64 8, ptr %18) #7
  call void @llvm.lifetime.end.p0(i64 8, ptr %17) #7
  call void @llvm.lifetime.end.p0(i64 8, ptr %16) #7
  call void @llvm.lifetime.end.p0(i64 8, ptr %15) #7
  call void @llvm.lifetime.end.p0(i64 8, ptr %14) #7
  call void @llvm.lifetime.end.p0(i64 8, ptr %13) #7
  call void @llvm.lifetime.end.p0(i64 8, ptr %12) #7
  call void @llvm.lifetime.end.p0(i64 8, ptr %11) #7
  call void @llvm.lifetime.end.p0(i64 8, ptr %10) #7
  call void @llvm.lifetime.end.p0(i64 8, ptr %9) #7
  call void @llvm.lifetime.end.p0(i64 8, ptr %8) #7
  call void @llvm.lifetime.end.p0(i64 8, ptr %7) #7
  call void @llvm.lifetime.end.p0(i64 8, ptr %6) #7
  call void @llvm.lifetime.end.p0(i64 8, ptr %5) #7
  call void @llvm.lifetime.end.p0(i64 8, ptr %4) #7
  call void @llvm.lifetime.end.p0(i64 8, ptr %3) #7
  ret ptr %144
}