; Function Attrs: nounwind uwtable
define ptr @l_Lake_Monitor_reportJob___lambda__2___boxed(ptr noundef readonly captures(none) %0) local_unnamed_addr #0 {
  %2 = load ptr, ptr %0, align 8, !tbaa !4
  %3 = getelementptr inbounds nuw i8, ptr %0, i64 8
  %4 = load ptr, ptr %3, align 8, !tbaa !4
  %5 = getelementptr inbounds nuw i8, ptr %0, i64 16
  %6 = load ptr, ptr %5, align 8, !tbaa !4
  %7 = getelementptr inbounds nuw i8, ptr %0, i64 24
  %8 = load ptr, ptr %7, align 8, !tbaa !4
  %9 = getelementptr inbounds nuw i8, ptr %0, i64 32
  %10 = load ptr, ptr %9, align 8, !tbaa !4
  %11 = getelementptr inbounds nuw i8, ptr %0, i64 40
  %12 = load ptr, ptr %11, align 8, !tbaa !4
  %13 = getelementptr inbounds nuw i8, ptr %0, i64 48
  %14 = load ptr, ptr %13, align 8, !tbaa !4
  %15 = getelementptr inbounds nuw i8, ptr %0, i64 56
  %16 = load ptr, ptr %15, align 8, !tbaa !4
  %17 = getelementptr inbounds nuw i8, ptr %0, i64 64
  %18 = load ptr, ptr %17, align 8, !tbaa !4
  %19 = getelementptr inbounds nuw i8, ptr %0, i64 72
  %20 = load ptr, ptr %19, align 8, !tbaa !4
  %21 = getelementptr inbounds nuw i8, ptr %0, i64 80
  %22 = load ptr, ptr %21, align 8, !tbaa !4
  %23 = getelementptr inbounds nuw i8, ptr %0, i64 88
  %24 = load ptr, ptr %23, align 8, !tbaa !4
  %25 = getelementptr inbounds nuw i8, ptr %0, i64 96
  %26 = load ptr, ptr %25, align 8, !tbaa !4
  %27 = getelementptr inbounds nuw i8, ptr %0, i64 104
  %28 = load ptr, ptr %27, align 8, !tbaa !4
  %29 = getelementptr inbounds nuw i8, ptr %0, i64 112
  %30 = load ptr, ptr %29, align 8, !tbaa !4
  %31 = getelementptr inbounds nuw i8, ptr %0, i64 120
  %32 = load ptr, ptr %31, align 8, !tbaa !4
  %33 = getelementptr inbounds nuw i8, ptr %0, i64 128
  %34 = load ptr, ptr %33, align 8, !tbaa !4
  %35 = getelementptr inbounds nuw i8, ptr %0, i64 136
  %36 = load ptr, ptr %35, align 8, !tbaa !4
  %37 = ptrtoint ptr %8 to i64
  %38 = lshr i64 %37, 1
  %39 = trunc i64 %38 to i8
  %40 = and i64 %37, 1
  %.not = icmp eq i64 %40, 0
  br i1 %.not, label %41, label %lean_dec.exit67

41:                                               ; preds = %1
  %42 = load i32, ptr %8, align 4, !tbaa !8
  %43 = icmp sgt i32 %42, 1
  br i1 %43, label %44, label %46, !prof !11

44:                                               ; preds = %41
  %45 = add nsw i32 %42, -1
  store i32 %45, ptr %8, align 4, !tbaa !8
  br label %lean_dec.exit67

46:                                               ; preds = %41
  %.not.i = icmp eq i32 %42, 0
  br i1 %.not.i, label %lean_dec.exit67, label %47

47:                                               ; preds = %46
  tail call void @lean_dec_ref_cold(ptr noundef nonnull %8) #5
  br label %lean_dec.exit67

lean_dec.exit67:                                  ; preds = %47, %46, %44, %1
  %48 = ptrtoint ptr %12 to i64
  %49 = lshr i64 %48, 1
  %50 = trunc i64 %49 to i8
  %51 = and i64 %48, 1
  %.not90 = icmp eq i64 %51, 0
  br i1 %.not90, label %52, label %lean_dec.exit66

52:                                               ; preds = %lean_dec.exit67
  %53 = load i32, ptr %12, align 4, !tbaa !8
  %54 = icmp sgt i32 %53, 1
  br i1 %54, label %55, label %57, !prof !11

55:                                               ; preds = %52
  %56 = add nsw i32 %53, -1
  store i32 %56, ptr %12, align 4, !tbaa !8
  br label %lean_dec.exit66

57:                                               ; preds = %52
  %.not.i68 = icmp eq i32 %53, 0
  br i1 %.not.i68, label %lean_dec.exit66, label %58

58:                                               ; preds = %57
  tail call void @lean_dec_ref_cold(ptr noundef nonnull %12) #5
  br label %lean_dec.exit66

lean_dec.exit66:                                  ; preds = %58, %57, %55, %lean_dec.exit67
  %59 = ptrtoint ptr %14 to i64
  %60 = lshr i64 %59, 1
  %61 = trunc i64 %60 to i8
  %62 = and i64 %59, 1
  %.not91 = icmp eq i64 %62, 0
  br i1 %.not91, label %63, label %lean_dec.exit65

63:                                               ; preds = %lean_dec.exit66
  %64 = load i32, ptr %14, align 4, !tbaa !8
  %65 = icmp sgt i32 %64, 1
  br i1 %65, label %66, label %68, !prof !11

66:                                               ; preds = %63
  %67 = add nsw i32 %64, -1
  store i32 %67, ptr %14, align 4, !tbaa !8
  br label %lean_dec.exit65

68:                                               ; preds = %63
  %.not.i70 = icmp eq i32 %64, 0
  br i1 %.not.i70, label %lean_dec.exit65, label %69

69:                                               ; preds = %68
  tail call void @lean_dec_ref_cold(ptr noundef nonnull %14) #5
  br label %lean_dec.exit65

lean_dec.exit65:                                  ; preds = %69, %68, %66, %lean_dec.exit66
  %70 = ptrtoint ptr %18 to i64
  %71 = lshr i64 %70, 1
  %72 = trunc i64 %71 to i8
  %73 = and i64 %70, 1
  %.not92 = icmp eq i64 %73, 0
  br i1 %.not92, label %74, label %lean_dec.exit64

74:                                               ; preds = %lean_dec.exit65
  %75 = load i32, ptr %18, align 4, !tbaa !8
  %76 = icmp sgt i32 %75, 1
  br i1 %76, label %77, label %79, !prof !11

77:                                               ; preds = %74
  %78 = add nsw i32 %75, -1
  store i32 %78, ptr %18, align 4, !tbaa !8
  br label %lean_dec.exit64

79:                                               ; preds = %74
  %.not.i72 = icmp eq i32 %75, 0
  br i1 %.not.i72, label %lean_dec.exit64, label %80

80:                                               ; preds = %79
  tail call void @lean_dec_ref_cold(ptr noundef nonnull %18) #5
  br label %lean_dec.exit64

lean_dec.exit64:                                  ; preds = %80, %79, %77, %lean_dec.exit65
  %81 = ptrtoint ptr %20 to i64
  %82 = lshr i64 %81, 1
  %83 = trunc i64 %82 to i8
  %84 = and i64 %81, 1
  %.not93 = icmp eq i64 %84, 0
  br i1 %.not93, label %85, label %lean_dec.exit63

85:                                               ; preds = %lean_dec.exit64
  %86 = load i32, ptr %20, align 4, !tbaa !8
  %87 = icmp sgt i32 %86, 1
  br i1 %87, label %88, label %90, !prof !11

88:                                               ; preds = %85
  %89 = add nsw i32 %86, -1
  store i32 %89, ptr %20, align 4, !tbaa !8
  br label %lean_dec.exit63

90:                                               ; preds = %85
  %.not.i74 = icmp eq i32 %86, 0
  br i1 %.not.i74, label %lean_dec.exit63, label %91

91:                                               ; preds = %90
  tail call void @lean_dec_ref_cold(ptr noundef nonnull %20) #5
  br label %lean_dec.exit63

lean_dec.exit63:                                  ; preds = %91, %90, %88, %lean_dec.exit64
  %92 = ptrtoint ptr %22 to i64
  %93 = lshr i64 %92, 1
  %94 = trunc i64 %93 to i8
  %95 = and i64 %92, 1
  %.not94 = icmp eq i64 %95, 0
  br i1 %.not94, label %96, label %lean_dec.exit62

96:                                               ; preds = %lean_dec.exit63
  %97 = load i32, ptr %22, align 4, !tbaa !8
  %98 = icmp sgt i32 %97, 1
  br i1 %98, label %99, label %101, !prof !11

99:                                               ; preds = %96
  %100 = add nsw i32 %97, -1
  store i32 %100, ptr %22, align 4, !tbaa !8
  br label %lean_dec.exit62

101:                                              ; preds = %96
  %.not.i76 = icmp eq i32 %97, 0
  br i1 %.not.i76, label %lean_dec.exit62, label %102

102:                                              ; preds = %101
  tail call void @lean_dec_ref_cold(ptr noundef nonnull %22) #5
  br label %lean_dec.exit62

lean_dec.exit62:                                  ; preds = %102, %101, %99, %lean_dec.exit63
  %103 = ptrtoint ptr %24 to i64
  %104 = lshr i64 %103, 1
  %105 = trunc i64 %104 to i8
  %106 = and i64 %103, 1
  %.not95 = icmp eq i64 %106, 0
  br i1 %.not95, label %107, label %lean_dec.exit61

107:                                              ; preds = %lean_dec.exit62
  %108 = load i32, ptr %24, align 4, !tbaa !8
  %109 = icmp sgt i32 %108, 1
  br i1 %109, label %110, label %112, !prof !11

110:                                              ; preds = %107
  %111 = add nsw i32 %108, -1
  store i32 %111, ptr %24, align 4, !tbaa !8
  br label %lean_dec.exit61

112:                                              ; preds = %107
  %.not.i78 = icmp eq i32 %108, 0
  br i1 %.not.i78, label %lean_dec.exit61, label %113

113:                                              ; preds = %112
  tail call void @lean_dec_ref_cold(ptr noundef nonnull %24) #5
  br label %lean_dec.exit61

lean_dec.exit61:                                  ; preds = %113, %112, %110, %lean_dec.exit62
  %114 = ptrtoint ptr %26 to i64
  %115 = lshr i64 %114, 1
  %116 = trunc i64 %115 to i8
  %117 = and i64 %114, 1
  %.not96 = icmp eq i64 %117, 0
  br i1 %.not96, label %118, label %lean_dec.exit60

118:                                              ; preds = %lean_dec.exit61
  %119 = load i32, ptr %26, align 4, !tbaa !8
  %120 = icmp sgt i32 %119, 1
  br i1 %120, label %121, label %123, !prof !11

121:                                              ; preds = %118
  %122 = add nsw i32 %119, -1
  store i32 %122, ptr %26, align 4, !tbaa !8
  br label %lean_dec.exit60

123:                                              ; preds = %118
  %.not.i80 = icmp eq i32 %119, 0
  br i1 %.not.i80, label %lean_dec.exit60, label %124

124:                                              ; preds = %123
  tail call void @lean_dec_ref_cold(ptr noundef nonnull %26) #5
  br label %lean_dec.exit60

lean_dec.exit60:                                  ; preds = %124, %123, %121, %lean_dec.exit61
  %125 = ptrtoint ptr %28 to i64
  %126 = lshr i64 %125, 1
  %127 = trunc i64 %126 to i8
  %128 = and i64 %125, 1
  %.not97 = icmp eq i64 %128, 0
  br i1 %.not97, label %129, label %lean_dec.exit59

129:                                              ; preds = %lean_dec.exit60
  %130 = load i32, ptr %28, align 4, !tbaa !8
  %131 = icmp sgt i32 %130, 1
  br i1 %131, label %132, label %134, !prof !11

132:                                              ; preds = %129
  %133 = add nsw i32 %130, -1
  store i32 %133, ptr %28, align 4, !tbaa !8
  br label %lean_dec.exit59

134:                                              ; preds = %129
  %.not.i82 = icmp eq i32 %130, 0
  br i1 %.not.i82, label %lean_dec.exit59, label %135

135:                                              ; preds = %134
  tail call void @lean_dec_ref_cold(ptr noundef nonnull %28) #5
  br label %lean_dec.exit59

lean_dec.exit59:                                  ; preds = %135, %134, %132, %lean_dec.exit60
  %136 = tail call ptr @l_Lake_Monitor_reportJob___lambda__2(ptr noundef %2, ptr noundef %4, ptr noundef %6, i8 noundef zeroext %39, ptr noundef %10, i8 noundef zeroext %50, i8 noundef zeroext %61, ptr noundef %16, i8 noundef zeroext %72, i8 noundef zeroext %83, i8 noundef zeroext %94, i8 noundef zeroext %105, i8 noundef zeroext %116, i8 noundef zeroext %127, ptr poison, ptr noundef %32, ptr noundef %34, ptr noundef %36)
  %137 = ptrtoint ptr %30 to i64
  %138 = and i64 %137, 1
  %.not98 = icmp eq i64 %138, 0
  br i1 %.not98, label %139, label %lean_dec.exit58

139:                                              ; preds = %lean_dec.exit59
  %140 = load i32, ptr %30, align 4, !tbaa !8
  %141 = icmp sgt i32 %140, 1
  br i1 %141, label %142, label %144, !prof !11

142:                                              ; preds = %139
  %143 = add nsw i32 %140, -1
  store i32 %143, ptr %30, align 4, !tbaa !8
  br label %lean_dec.exit58

144:                                              ; preds = %139
  %.not.i84 = icmp eq i32 %140, 0
  br i1 %.not.i84, label %lean_dec.exit58, label %145

145:                                              ; preds = %144
  tail call void @lean_dec_ref_cold(ptr noundef nonnull %30) #5
  br label %lean_dec.exit58

lean_dec.exit58:                                  ; preds = %145, %144, %142, %lean_dec.exit59
  %146 = ptrtoint ptr %16 to i64
  %147 = and i64 %146, 1
  %.not99 = icmp eq i64 %147, 0
  br i1 %.not99, label %148, label %lean_dec.exit57

148:                                              ; preds = %lean_dec.exit58
  %149 = load i32, ptr %16, align 4, !tbaa !8
  %150 = icmp sgt i32 %149, 1
  br i1 %150, label %151, label %153, !prof !11

151:                                              ; preds = %148
  %152 = add nsw i32 %149, -1
  store i32 %152, ptr %16, align 4, !tbaa !8
  br label %lean_dec.exit57

153:                                              ; preds = %148
  %.not.i86 = icmp eq i32 %149, 0
  br i1 %.not.i86, label %lean_dec.exit57, label %154

154:                                              ; preds = %153
  tail call void @lean_dec_ref_cold(ptr noundef nonnull %16) #5
  br label %lean_dec.exit57

lean_dec.exit57:                                  ; preds = %154, %153, %151, %lean_dec.exit58
  %155 = ptrtoint ptr %2 to i64
  %156 = and i64 %155, 1
  %.not100 = icmp eq i64 %156, 0
  br i1 %.not100, label %157, label %lean_dec.exit

157:                                              ; preds = %lean_dec.exit57
  %158 = load i32, ptr %2, align 4, !tbaa !8
  %159 = icmp sgt i32 %158, 1
  br i1 %159, label %160, label %162, !prof !11

160:                                              ; preds = %157
  %161 = add nsw i32 %158, -1
  store i32 %161, ptr %2, align 4, !tbaa !8
  br label %lean_dec.exit

162:                                              ; preds = %157
  %.not.i88 = icmp eq i32 %158, 0
  br i1 %.not.i88, label %lean_dec.exit, label %163

163:                                              ; preds = %162
  tail call void @lean_dec_ref_cold(ptr noundef nonnull %2) #5
  br label %lean_dec.exit

lean_dec.exit:                                    ; preds = %163, %162, %160, %lean_dec.exit57
  ret ptr %136
}